target datalayout = "e-m:e-p270:32:32-p271:32:32-p272:64:64-i64:64-i128:128-f80:128-n8:16:32:64-S128"
target triple = "x86_64-pc-linux-gnu"

%"struct.vcpkg::msg::MessageT" = type { i64 }
%"struct.vcpkg::msg::system_api_t" = type { i8 }
%"struct.vcpkg::msg::exit_code_t" = type { i8 }
%"struct.vcpkg::msg::error_msg_t" = type { i8 }
%"struct.vcpkg::StringLiteral" = type { %"struct.vcpkg::ZStringView" }
%"struct.vcpkg::ZStringView" = type { %"struct.vcpkg::StringView" }
%"struct.vcpkg::StringView" = type { ptr, i64 }
%"struct.vcpkg::msg::TagArg" = type { %"struct.vcpkg::StringView" }
%"struct.vcpkg::msg::TagArg.1" = type { ptr }
%"struct.vcpkg::msg::TagArg.2" = type { %"struct.vcpkg::StringView" }
%"class.std::__cxx11::basic_string" = type { %"struct.std::__cxx11::basic_string<char>::_Alloc_hider", i64, %union.anon.0 }
%"struct.std::__cxx11::basic_string<char>::_Alloc_hider" = type { ptr }
%union.anon.0 = type { i64, [8 x i8] }

@_ZN5vcpkg24msgSystemApiErrorMessageE = external global %"struct.vcpkg::msg::MessageT", align 8
@_ZN5vcpkg3msgL10system_apiE = internal constant %"struct.vcpkg::msg::system_api_t" undef, align 1
@_ZN5vcpkg3msgL9exit_codeE = internal constant %"struct.vcpkg::msg::exit_code_t" undef, align 1
@_ZN5vcpkg3msgL9error_msgE = internal constant %"struct.vcpkg::msg::error_msg_t" undef, align 1

; Function Attrs: mustprogress nounwind uwtable
define linkonce_odr dso_local void @_ZNSt15__new_allocatorIcE10deallocateEPcm(ptr noundef nonnull align 1 dereferenceable(1) %0, ptr noundef %1, i64 noundef %2) #2 comdat align 2 {
  %4 = alloca ptr, align 8
  %5 = alloca ptr, align 8
  %6 = alloca i64, align 8
  store ptr %0, ptr %4, align 8, !tbaa !125
  store ptr %1, ptr %5, align 8, !tbaa !19
  store i64 %2, ptr %6, align 8, !tbaa !16
  %7 = load ptr, ptr %5, align 8, !tbaa !19
  %8 = load i64, ptr %6, align 8, !tbaa !16
  %9 = mul i64 %8, 1
  call void @_ZdlPvm(ptr noundef %7, i64 noundef %9) #25
  ret void
}

; Function Attrs: mustprogress nounwind uwtable
define linkonce_odr dso_local noundef ptr @_ZNSt19__ptr_traits_ptr_toIPKcS0_Lb0EE10pointer_toERS0_(ptr noundef nonnull align 1 dereferenceable(1) %0) #2 comdat align 2 {
  %2 = alloca ptr, align 8
  store ptr %0, ptr %2, align 8, !tbaa !19
  %3 = load ptr, ptr %2, align 8, !tbaa !19
  ret ptr %3
}

; Function Attrs: mustprogress uwtable
define linkonce_odr dso_local void @_ZNSt16allocator_traitsISaIcEE10deallocateERS0_Pcm(ptr noundef nonnull align 1 dereferenceable(1) %0, ptr noundef %1, i64 noundef %2) #0 comdat align 2 {
  %4 = alloca ptr, align 8
  %5 = alloca ptr, align 8
  %6 = alloca i64, align 8
  store ptr %0, ptr %4, align 8, !tbaa !123
  store ptr %1, ptr %5, align 8, !tbaa !19
  store i64 %2, ptr %6, align 8, !tbaa !16
  %7 = load ptr, ptr %4, align 8, !tbaa !123
  %8 = load ptr, ptr %5, align 8, !tbaa !19
  %9 = load i64, ptr %6, align 8, !tbaa !16
  call void @_ZNSt15__new_allocatorIcE10deallocateEPcm(ptr noundef nonnull align 1 dereferenceable(1) %7, ptr noundef %8, i64 noundef %9)
  ret void
}

; Function Attrs: mustprogress nounwind uwtable
define available_externally noundef nonnull align 1 dereferenceable(1) ptr @_ZNSt7__cxx1112basic_stringIcSt11char_traitsIcESaIcEE16_M_get_allocatorEv(ptr noundef nonnull align 8 dereferenceable(32) %0) #2 align 2 {
  %2 = alloca ptr, align 8
  store ptr %0, ptr %2, align 8, !tbaa !32
  %3 = load ptr, ptr %2, align 8
  %4 = getelementptr inbounds nuw %"class.std::__cxx11::basic_string", ptr %3, i32 0, i32 0
  ret ptr %4
}

; Function Attrs: mustprogress nounwind uwtable
define available_externally noundef ptr @_ZNKSt7__cxx1112basic_stringIcSt11char_traitsIcESaIcEE13_M_local_dataEv(ptr noundef nonnull align 8 dereferenceable(32) %0) #2 align 2 {
  %2 = alloca ptr, align 8
  store ptr %0, ptr %2, align 8, !tbaa !32
  %3 = load ptr, ptr %2, align 8
  %4 = getelementptr inbounds nuw %"class.std::__cxx11::basic_string", ptr %3, i32 0, i32 2
  %5 = getelementptr inbounds [16 x i8], ptr %4, i64 0, i64 0
  %6 = call noundef ptr @_ZNSt19__ptr_traits_ptr_toIPKcS0_Lb0EE10pointer_toERS0_(ptr noundef nonnull align 1 dereferenceable(1) %5) #20
  ret ptr %6
}

; Function Attrs: mustprogress nounwind uwtable
define available_externally noundef ptr @_ZNKSt7__cxx1112basic_stringIcSt11char_traitsIcESaIcEE7_M_dataEv(ptr noundef nonnull align 8 dereferenceable(32) %0) #2 align 2 {
  %2 = alloca ptr, align 8
  store ptr %0, ptr %2, align 8, !tbaa !32
  %3 = load ptr, ptr %2, align 8
  %4 = getelementptr inbounds nuw %"class.std::__cxx11::basic_string", ptr %3, i32 0, i32 0
  %5 = getelementptr inbounds nuw %"struct.std::__cxx11::basic_string<char>::_Alloc_hider", ptr %4, i32 0, i32 0
  %6 = load ptr, ptr %5, align 8, !tbaa !122
  ret ptr %6
}

; Function Attrs: mustprogress nounwind uwtable
define available_externally void @_ZNSt7__cxx1112basic_stringIcSt11char_traitsIcESaIcEE10_M_destroyEm(ptr noundef nonnull align 8 dereferenceable(32) %0, i64 noundef %1) #2 align 2 personality ptr @__gxx_personality_v0 {
  %3 = alloca ptr, align 8
  %4 = alloca i64, align 8
  store ptr %0, ptr %3, align 8, !tbaa !32
  store i64 %1, ptr %4, align 8, !tbaa !16
  %5 = load ptr, ptr %3, align 8
  %6 = invoke noundef nonnull align 1 dereferenceable(1) ptr @_ZNSt7__cxx1112basic_stringIcSt11char_traitsIcESaIcEE16_M_get_allocatorEv(ptr noundef nonnull align 8 dereferenceable(32) %5)
          to label %7 unwind label %12

7:                                                ; preds = %2
  %8 = call noundef ptr @_ZNKSt7__cxx1112basic_stringIcSt11char_traitsIcESaIcEE7_M_dataEv(ptr noundef nonnull align 8 dereferenceable(32) %5)
  %9 = load i64, ptr %4, align 8, !tbaa !16
  %10 = add i64 %9, 1
  invoke void @_ZNSt16allocator_traitsISaIcEE10deallocateERS0_Pcm(ptr noundef nonnull align 1 dereferenceable(1) %6, ptr noundef %8, i64 noundef %10)
          to label %11 unwind label %12

11:                                               ; preds = %7
  ret void

12:                                               ; preds = %7, %2
  %13 = landingpad { ptr, i32 }
          catch ptr null
  %14 = extractvalue { ptr, i32 } %13, 0
  call void @__clang_call_terminate(ptr %14) #22
  unreachable
}

; Function Attrs: mustprogress uwtable
define available_externally noundef zeroext i1 @_ZNKSt7__cxx1112basic_stringIcSt11char_traitsIcESaIcEE11_M_is_localEv(ptr noundef nonnull align 8 dereferenceable(32) %0) #0 align 2 {
  %2 = alloca i1, align 1
  %3 = alloca ptr, align 8
  store ptr %0, ptr %3, align 8, !tbaa !32
  %4 = load ptr, ptr %3, align 8
  %5 = call noundef ptr @_ZNKSt7__cxx1112basic_stringIcSt11char_traitsIcESaIcEE7_M_dataEv(ptr noundef nonnull align 8 dereferenceable(32) %4)
  %6 = call noundef ptr @_ZNKSt7__cxx1112basic_stringIcSt11char_traitsIcESaIcEE13_M_local_dataEv(ptr noundef nonnull align 8 dereferenceable(32) %4)
  %7 = icmp eq ptr %5, %6
  br i1 %7, label %8, label %14

8:                                                ; preds = %1
  %9 = getelementptr inbounds nuw %"class.std::__cxx11::basic_string", ptr %4, i32 0, i32 1
  %10 = load i64, ptr %9, align 8, !tbaa !121
  %11 = icmp ugt i64 %10, 15
  br i1 %11, label %12, label %13

12:                                               ; preds = %8
  unreachable

13:                                               ; preds = %8
  store i1 true, ptr %2, align 1
  br label %15

14:                                               ; preds = %1
  store i1 false, ptr %2, align 1
  br label %15

15:                                               ; preds = %14, %13
  %16 = load i1, ptr %2, align 1
  ret i1 %16
}

; Function Attrs: noinline noreturn nounwind uwtable
define linkonce_odr hidden void @__clang_call_terminate(ptr noundef %0) #10 comdat {
  %2 = call ptr @__cxa_begin_catch(ptr %0) #20
  call void @_ZSt9terminatev() #22
  unreachable
}

; Function Attrs: mustprogress nounwind uwtable
define linkonce_odr dso_local void @_ZNSt15__new_allocatorIcED2Ev(ptr noundef nonnull align 1 dereferenceable(1) %0) unnamed_addr #2 comdat align 2 {
  %2 = alloca ptr, align 8
  store ptr %0, ptr %2, align 8, !tbaa !125
  ret void
}

; Function Attrs: mustprogress uwtable
define available_externally void @_ZNSt7__cxx1112basic_stringIcSt11char_traitsIcESaIcEE10_M_disposeEv(ptr noundef nonnull align 8 dereferenceable(32) %0) #0 align 2 {
  %2 = alloca ptr, align 8
  store ptr %0, ptr %2, align 8, !tbaa !32
  %3 = load ptr, ptr %2, align 8
  %4 = call noundef zeroext i1 @_ZNKSt7__cxx1112basic_stringIcSt11char_traitsIcESaIcEE11_M_is_localEv(ptr noundef nonnull align 8 dereferenceable(32) %3)
  br i1 %4, label %8, label %5

5:                                                ; preds = %1
  %6 = getelementptr inbounds nuw %"class.std::__cxx11::basic_string", ptr %3, i32 0, i32 2
  %7 = load i64, ptr %6, align 8, !tbaa !120
  call void @_ZNSt7__cxx1112basic_stringIcSt11char_traitsIcESaIcEE10_M_destroyEm(ptr noundef nonnull align 8 dereferenceable(32) %3, i64 noundef %7) #20
  br label %8

8:                                                ; preds = %5, %1
  ret void
}

; Function Attrs: mustprogress nounwind uwtable
define available_externally void @_ZNSt7__cxx1112basic_stringIcSt11char_traitsIcESaIcEED2Ev(ptr noundef nonnull align 8 dereferenceable(32) %0) unnamed_addr #2 align 2 personality ptr @__gxx_personality_v0 {
  %2 = alloca ptr, align 8
  store ptr %0, ptr %2, align 8, !tbaa !32
  %3 = load ptr, ptr %2, align 8
  invoke void @_ZNSt7__cxx1112basic_stringIcSt11char_traitsIcESaIcEE10_M_disposeEv(ptr noundef nonnull align 8 dereferenceable(32) %3)
          to label %4 unwind label %6

4:                                                ; preds = %1
  %5 = getelementptr inbounds nuw %"class.std::__cxx11::basic_string", ptr %3, i32 0, i32 0
  call void @_ZNSt15__new_allocatorIcED2Ev(ptr noundef nonnull align 8 dereferenceable(8) %5) #20
  ret void

6:                                                ; preds = %1
  %7 = landingpad { ptr, i32 }
          catch ptr null
  %8 = extractvalue { ptr, i32 } %7, 0
  call void @__clang_call_terminate(ptr %8) #22
  unreachable
}

; Function Attrs: mustprogress nounwind uwtable
define linkonce_odr dso_local { ptr, i64 } @_ZNK5vcpkg3msg11error_msg_taSINSt7__cxx1112basic_stringIcSt11char_traitsIcESaIcEEEEENS0_6TagArgIS1_NSt11conditionalIXsr3std16is_constructibleINS_10StringViewET_EE5valueESB_SC_E4typeEEERKSC_(ptr noundef nonnull align 1 dereferenceable(1) %0, ptr noundef nonnull align 8 dereferenceable(32) %1) #2 comdat align 2 {
  %3 = alloca %"struct.vcpkg::msg::TagArg.2", align 8
  %4 = alloca ptr, align 8
  %5 = alloca ptr, align 8
  store ptr %0, ptr %4, align 8, !tbaa !30
  store ptr %1, ptr %5, align 8, !tbaa !32
  %6 = getelementptr inbounds nuw %"struct.vcpkg::msg::TagArg.2", ptr %3, i32 0, i32 0
  %7 = load ptr, ptr %5, align 8, !tbaa !32
  call void @_ZN5vcpkg10StringViewC1ERKNSt7__cxx1112basic_stringIcSt11char_traitsIcESaIcEEE(ptr noundef nonnull align 8 dereferenceable(16) %6, ptr noundef nonnull align 8 dereferenceable(32) %7) #20
  %8 = getelementptr inbounds nuw %"struct.vcpkg::msg::TagArg.2", ptr %3, i32 0, i32 0
  %9 = load { ptr, i64 }, ptr %8, align 8
  ret { ptr, i64 } %9
}

; Function Attrs: mustprogress nounwind uwtable
define linkonce_odr dso_local ptr @_ZNK5vcpkg3msg11exit_code_taSIiEENS0_6TagArgIS1_NSt11conditionalIXsr3std16is_constructibleINS_10StringViewET_EE5valueES5_S6_E4typeEEERKS6_(ptr noundef nonnull align 1 dereferenceable(1) %0, ptr noundef nonnull align 4 dereferenceable(4) %1) #2 comdat align 2 {
  %3 = alloca %"struct.vcpkg::msg::TagArg.1", align 8
  %4 = alloca ptr, align 8
  %5 = alloca ptr, align 8
  store ptr %0, ptr %4, align 8, !tbaa !28
  store ptr %1, ptr %5, align 8, !tbaa !22
  %6 = getelementptr inbounds nuw %"struct.vcpkg::msg::TagArg.1", ptr %3, i32 0, i32 0
  %7 = load ptr, ptr %5, align 8, !tbaa !22
  store ptr %7, ptr %6, align 8, !tbaa !22
  %8 = getelementptr inbounds nuw %"struct.vcpkg::msg::TagArg.1", ptr %3, i32 0, i32 0
  %9 = load ptr, ptr %8, align 8
  ret ptr %9
}

; Function Attrs: mustprogress nounwind uwtable
define linkonce_odr dso_local { ptr, i64 } @_ZNK5vcpkg3msg12system_api_taSINS_13StringLiteralEEENS0_6TagArgIS1_NSt11conditionalIXsr3std16is_constructibleINS_10StringViewET_EE5valueES6_S7_E4typeEEERKS7_(ptr noundef nonnull align 1 dereferenceable(1) %0, ptr noundef nonnull align 8 dereferenceable(16) %1) #2 comdat align 2 {
  %3 = alloca %"struct.vcpkg::msg::TagArg", align 8
  %4 = alloca ptr, align 8
  %5 = alloca ptr, align 8
  store ptr %0, ptr %4, align 8, !tbaa !24
  store ptr %1, ptr %5, align 8, !tbaa !26
  %6 = getelementptr inbounds nuw %"struct.vcpkg::msg::TagArg", ptr %3, i32 0, i32 0
  %7 = load ptr, ptr %5, align 8, !tbaa !26
  call void @llvm.memcpy.p0.p0.i64(ptr align 8 %6, ptr align 8 %7, i64 16, i1 false), !tbaa.struct !18
  %8 = getelementptr inbounds nuw %"struct.vcpkg::msg::TagArg", ptr %3, i32 0, i32 0
  %9 = load { ptr, i64 }, ptr %8, align 8
  ret { ptr, i64 } %9
}

; Function Attrs: mustprogress uwtable
define dso_local void @_ZN5vcpkg17DiagnosticContext19report_system_errorENS_13StringLiteralEi(ptr noundef nonnull align 8 dereferenceable(8) %0, ptr %1, i64 %2, i32 noundef %3) #0 align 2 personality ptr @__gxx_personality_v0 {
  %5 = alloca %"struct.vcpkg::StringLiteral", align 8
  %6 = alloca ptr, align 8
  %7 = alloca i32, align 4
  %8 = alloca %"struct.vcpkg::msg::MessageT", align 8
  %9 = alloca %"struct.vcpkg::msg::TagArg", align 8
  %10 = alloca %"struct.vcpkg::msg::TagArg.1", align 8
  %11 = alloca %"struct.vcpkg::msg::TagArg.2", align 8
  %12 = alloca %"class.std::__cxx11::basic_string", align 8
  %13 = alloca ptr, align 8
  %14 = alloca i32, align 4
  %15 = getelementptr inbounds nuw { ptr, i64 }, ptr %5, i32 0, i32 0
  store ptr %1, ptr %15, align 8
  %16 = getelementptr inbounds nuw { ptr, i64 }, ptr %5, i32 0, i32 1
  store i64 %2, ptr %16, align 8
  store ptr %0, ptr %6, align 8, !tbaa !4
  store i32 %3, ptr %7, align 4, !tbaa !13
  %17 = load ptr, ptr %6, align 8
  call void @llvm.memcpy.p0.p0.i64(ptr align 8 %8, ptr align 8 @_ZN5vcpkg24msgSystemApiErrorMessageE, i64 8, i1 false), !tbaa.struct !15
  %18 = call { ptr, i64 } @_ZNK5vcpkg3msg12system_api_taSINS_13StringLiteralEEENS0_6TagArgIS1_NSt11conditionalIXsr3std16is_constructibleINS_10StringViewET_EE5valueES6_S7_E4typeEEERKS7_(ptr noundef nonnull align 1 dereferenceable(1) @_ZN5vcpkg3msgL10system_apiE, ptr noundef nonnull align 8 dereferenceable(16) %5) #20
  %19 = getelementptr inbounds nuw %"struct.vcpkg::msg::TagArg", ptr %9, i32 0, i32 0
  %20 = getelementptr inbounds nuw { ptr, i64 }, ptr %19, i32 0, i32 0
  %21 = extractvalue { ptr, i64 } %18, 0
  store ptr %21, ptr %20, align 8
  %22 = getelementptr inbounds nuw { ptr, i64 }, ptr %19, i32 0, i32 1
  %23 = extractvalue { ptr, i64 } %18, 1
  store i64 %23, ptr %22, align 8
  %24 = call ptr @_ZNK5vcpkg3msg11exit_code_taSIiEENS0_6TagArgIS1_NSt11conditionalIXsr3std16is_constructibleINS_10StringViewET_EE5valueES5_S6_E4typeEEERKS6_(ptr noundef nonnull align 1 dereferenceable(1) @_ZN5vcpkg3msgL9exit_codeE, ptr noundef nonnull align 4 dereferenceable(4) %7) #20
  %25 = getelementptr inbounds nuw %"struct.vcpkg::msg::TagArg.1", ptr %10, i32 0, i32 0
  store ptr %24, ptr %25, align 8
  call void @llvm.lifetime.start.p0(i64 32, ptr %12) #20
  %26 = call noundef nonnull align 8 dereferenceable(8) ptr @_ZNSt3_V215system_categoryEv() #21
  %27 = load i32, ptr %7, align 4, !tbaa !13
  %28 = load ptr, ptr %26, align 8, !tbaa !11
  %29 = getelementptr inbounds ptr, ptr %28, i64 4
  %30 = load ptr, ptr %29, align 8
  call void %30(ptr dead_on_unwind writable sret(%"class.std::__cxx11::basic_string") align 8 %12, ptr noundef nonnull align 8 dereferenceable(8) %26, i32 noundef %27)
  %31 = call { ptr, i64 } @_ZNK5vcpkg3msg11error_msg_taSINSt7__cxx1112basic_stringIcSt11char_traitsIcESaIcEEEEENS0_6TagArgIS1_NSt11conditionalIXsr3std16is_constructibleINS_10StringViewET_EE5valueESB_SC_E4typeEEERKSC_(ptr noundef nonnull align 1 dereferenceable(1) @_ZN5vcpkg3msgL9error_msgE, ptr noundef nonnull align 8 dereferenceable(32) %12) #20
  %32 = getelementptr inbounds nuw %"struct.vcpkg::msg::TagArg.2", ptr %11, i32 0, i32 0
  %33 = getelementptr inbounds nuw { ptr, i64 }, ptr %32, i32 0, i32 0
  %34 = extractvalue { ptr, i64 } %31, 0
  store ptr %34, ptr %33, align 8
  %35 = getelementptr inbounds nuw { ptr, i64 }, ptr %32, i32 0, i32 1
  %36 = extractvalue { ptr, i64 } %31, 1
  store i64 %36, ptr %35, align 8
  %37 = getelementptr inbounds nuw %"struct.vcpkg::msg::MessageT", ptr %8, i32 0, i32 0
  %38 = load i64, ptr %37, align 8
  %39 = getelementptr inbounds nuw { ptr, i64 }, ptr %9, i32 0, i32 0
  %40 = load ptr, ptr %39, align 8
  %41 = getelementptr inbounds nuw { ptr, i64 }, ptr %9, i32 0, i32 1
  %42 = load i64, ptr %41, align 8
  %43 = getelementptr inbounds nuw %"struct.vcpkg::msg::TagArg.1", ptr %10, i32 0, i32 0
  %44 = load ptr, ptr %43, align 8
  invoke void @_ZN5vcpkg17DiagnosticContext12report_errorIJNS_3msg12system_api_tENS2_11exit_code_tENS2_11error_msg_tEEJNS_10StringViewEiS6_EEEvNS2_8MessageTIJDpT_EEEDpNS2_6TagArgINS_8identityIS8_E4typeET0_EE(ptr noundef nonnull align 8 dereferenceable(8) %17, i64 %38, ptr %40, i64 %42, ptr %44, ptr noundef byval(%"struct.vcpkg::msg::TagArg.2") align 8 %11)
          to label %45 unwind label %46

45:                                               ; preds = %4
  call void @_ZNSt7__cxx1112basic_stringIcSt11char_traitsIcESaIcEED2Ev(ptr noundef nonnull align 8 dereferenceable(32) %12) #20
  call void @llvm.lifetime.end.p0(i64 32, ptr %12) #20
  ret void

46:                                               ; preds = %4
  %47 = landingpad { ptr, i32 }
          cleanup
  %48 = extractvalue { ptr, i32 } %47, 0
  store ptr %48, ptr %13, align 8
  %49 = extractvalue { ptr, i32 } %47, 1
  store i32 %49, ptr %14, align 4
  call void @_ZNSt7__cxx1112basic_stringIcSt11char_traitsIcESaIcEED2Ev(ptr noundef nonnull align 8 dereferenceable(32) %12) #20
  call void @llvm.lifetime.end.p0(i64 32, ptr %12) #20
  br label %50

50:                                               ; preds = %46
  %51 = load ptr, ptr %13, align 8
  %52 = load i32, ptr %14, align 4
  %53 = insertvalue { ptr, i32 } poison, ptr %51, 0
  %54 = insertvalue { ptr, i32 } %53, i32 %52, 1
  resume { ptr, i32 } %54
}