; Function Attrs: mustprogress uwtable
define dso_local void @_ZN5vcpkg17DiagnosticContext19report_system_errorENS_13StringLiteralEi(ptr noundef nonnull align 8 dereferenceable(8) %0, ptr %1, i64 %2, i32 noundef %3) local_unnamed_addr #0 align 2 personality ptr @__gxx_personality_v0 {
  %5 = alloca %"struct.vcpkg::msg::TagArg.2", align 8
  %6 = alloca i32, align 4
  %7 = alloca %"struct.vcpkg::msg::TagArg.2", align 8
  %8 = alloca %"class.std::__cxx11::basic_string", align 8
  store i32 %3, ptr %6, align 4, !tbaa !7
  %.sroa.02.0.copyload = load i64, ptr @_ZN5vcpkg24msgSystemApiErrorMessageE, align 8, !tbaa !10
  call void @llvm.lifetime.start.p0(i64 32, ptr nonnull %8) #26
  %9 = tail call noundef nonnull align 8 dereferenceable(8) ptr @_ZNSt3_V215system_categoryEv() #27
  %10 = load ptr, ptr %9, align 8, !tbaa !4
  %11 = getelementptr inbounds nuw i8, ptr %10, i64 32
  %12 = load ptr, ptr %11, align 8
  call void %12(ptr dead_on_unwind nonnull writable sret(%"class.std::__cxx11::basic_string") align 8 %8, ptr noundef nonnull align 8 dereferenceable(8) %9, i32 noundef %3)
  call void @llvm.lifetime.start.p0(i64 16, ptr nonnull %5)
  call void @_ZN5vcpkg10StringViewC1ERKNSt7__cxx1112basic_stringIcSt11char_traitsIcESaIcEEE(ptr noundef nonnull align 8 dereferenceable(16) %5, ptr noundef nonnull align 8 dereferenceable(32) %8) #26
  %.fca.0.load.i = load ptr, ptr %5, align 8
  %.fca.1.gep.i = getelementptr inbounds nuw i8, ptr %5, i64 8
  %.fca.1.load.i = load i64, ptr %.fca.1.gep.i, align 8
  call void @llvm.lifetime.end.p0(i64 16, ptr nonnull %5)
  store ptr %.fca.0.load.i, ptr %7, align 8
  %13 = getelementptr inbounds nuw i8, ptr %7, i64 8
  store i64 %.fca.1.load.i, ptr %13, align 8
  invoke void @_ZN5vcpkg17DiagnosticContext12report_errorIJNS_3msg12system_api_tENS2_11exit_code_tENS2_11error_msg_tEEJNS_10StringViewEiS6_EEEvNS2_8MessageTIJDpT_EEEDpNS2_6TagArgINS_8identityIS8_E4typeET0_EE(ptr noundef nonnull align 8 dereferenceable(8) %0, i64 %.sroa.02.0.copyload, ptr %1, i64 %2, ptr nonnull %6, ptr noundef nonnull byval(%"struct.vcpkg::msg::TagArg.2") align 8 %7)
          to label %14 unwind label %23

14:                                               ; preds = %4
  %15 = load ptr, ptr %8, align 8, !tbaa !12
  %16 = getelementptr inbounds nuw i8, ptr %8, i64 16
  %17 = icmp eq ptr %15, %16
  br i1 %17, label %_ZNKSt7__cxx1112basic_stringIcSt11char_traitsIcESaIcEE11_M_is_localEv.exit.thread.i.i, label %_ZNKSt7__cxx1112basic_stringIcSt11char_traitsIcESaIcEE11_M_is_localEv.exit.i.i

_ZNKSt7__cxx1112basic_stringIcSt11char_traitsIcESaIcEE11_M_is_localEv.exit.thread.i.i: ; preds = %14
  %18 = getelementptr inbounds nuw i8, ptr %8, i64 8
  %19 = load i64, ptr %18, align 8, !tbaa !17
  %20 = icmp ult i64 %19, 16
  call void @llvm.assume(i1 %20)
  br label %_ZNSt7__cxx1112basic_stringIcSt11char_traitsIcESaIcEED2Ev.exit

_ZNKSt7__cxx1112basic_stringIcSt11char_traitsIcESaIcEE11_M_is_localEv.exit.i.i: ; preds = %14
  %21 = load i64, ptr %16, align 8, !tbaa !18
  %22 = add i64 %21, 1
  call void @_ZdlPvm(ptr noundef %15, i64 noundef %22) #28
  br label %_ZNSt7__cxx1112basic_stringIcSt11char_traitsIcESaIcEED2Ev.exit

_ZNSt7__cxx1112basic_stringIcSt11char_traitsIcESaIcEED2Ev.exit: ; preds = %_ZNKSt7__cxx1112basic_stringIcSt11char_traitsIcESaIcEE11_M_is_localEv.exit.thread.i.i, %_ZNKSt7__cxx1112basic_stringIcSt11char_traitsIcESaIcEE11_M_is_localEv.exit.i.i
  call void @llvm.lifetime.end.p0(i64 32, ptr nonnull %8) #26
  ret void

23:                                               ; preds = %4
  %24 = landingpad { ptr, i32 }
          cleanup
  %25 = load ptr, ptr %8, align 8, !tbaa !12
  %26 = getelementptr inbounds nuw i8, ptr %8, i64 16
  %27 = icmp eq ptr %25, %26
  br i1 %27, label %_ZNKSt7__cxx1112basic_stringIcSt11char_traitsIcESaIcEE11_M_is_localEv.exit.thread.i.i7, label %_ZNKSt7__cxx1112basic_stringIcSt11char_traitsIcESaIcEE11_M_is_localEv.exit.i.i6

_ZNKSt7__cxx1112basic_stringIcSt11char_traitsIcESaIcEE11_M_is_localEv.exit.thread.i.i7: ; preds = %23
  %28 = getelementptr inbounds nuw i8, ptr %8, i64 8
  %29 = load i64, ptr %28, align 8, !tbaa !17
  %30 = icmp ult i64 %29, 16
  call void @llvm.assume(i1 %30)
  br label %_ZNSt7__cxx1112basic_stringIcSt11char_traitsIcESaIcEED2Ev.exit8

_ZNKSt7__cxx1112basic_stringIcSt11char_traitsIcESaIcEE11_M_is_localEv.exit.i.i6: ; preds = %23
  %31 = load i64, ptr %26, align 8, !tbaa !18
  %32 = add i64 %31, 1
  call void @_ZdlPvm(ptr noundef %25, i64 noundef %32) #28
  br label %_ZNSt7__cxx1112basic_stringIcSt11char_traitsIcESaIcEED2Ev.exit8

_ZNSt7__cxx1112basic_stringIcSt11char_traitsIcESaIcEED2Ev.exit8: ; preds = %_ZNKSt7__cxx1112basic_stringIcSt11char_traitsIcESaIcEE11_M_is_localEv.exit.thread.i.i7, %_ZNKSt7__cxx1112basic_stringIcSt11char_traitsIcESaIcEE11_M_is_localEv.exit.i.i6
  call void @llvm.lifetime.end.p0(i64 32, ptr nonnull %8) #26
  resume { ptr, i32 } %24
}